target datalayout = "e-m:e-p270:32:32-p271:32:32-p272:64:64-i64:64-i128:128-f80:128-n8:16:32:64-S128"
target triple = "x86_64-pc-linux-gnu"

%struct.uat_key_record_t = type { ptr, i8, ptr, [16 x i8] }

@gp_uat_key_records = internal global ptr null, align 8
@num_uat_key_records = internal global i32 0, align 4
@empty_key = internal constant [16 x i8] zeroinitializer, align 16

; Function Attrs: nounwind null_pointer_is_valid sspstrong uwtable
define internal void @uat_key_record_post_update_cb() #3 {
  %1 = alloca i32, align 4
  call void @llvm.lifetime.start.p0(i64 4, ptr %1) #11
  store i32 0, ptr %1, align 4
  br label %2

2:                                                ; preds = %37, %0
  %3 = load i32, ptr %1, align 4
  %4 = load i32, ptr @num_uat_key_records, align 4
  %5 = icmp ult i32 %3, %4
  br i1 %5, label %6, label %40

6:                                                ; preds = %2
  %7 = load ptr, ptr @gp_uat_key_records, align 8
  %8 = load i32, ptr %1, align 4
  %9 = zext i32 %8 to i64
  %10 = getelementptr %struct.uat_key_record_t, ptr %7, i64 %9
  %11 = getelementptr inbounds nuw %struct.uat_key_record_t, ptr %10, i32 0, i32 3
  %12 = getelementptr inbounds [16 x i8], ptr %11, i64 0, i64 0
  %13 = call i32 @memcmp(ptr noundef %12, ptr noundef @empty_key, i64 noundef 16) #12
  %14 = icmp eq i32 %13, 0
  br i1 %14, label %15, label %36

15:                                               ; preds = %6
  %16 = load ptr, ptr @gp_uat_key_records, align 8
  %17 = load i32, ptr %1, align 4
  %18 = zext i32 %17 to i64
  %19 = getelementptr %struct.uat_key_record_t, ptr %16, i64 %18
  %20 = getelementptr inbounds nuw %struct.uat_key_record_t, ptr %19, i32 0, i32 0
  %21 = load ptr, ptr %20, align 8
  %22 = load ptr, ptr @gp_uat_key_records, align 8
  %23 = load i32, ptr %1, align 4
  %24 = zext i32 %23 to i64
  %25 = getelementptr %struct.uat_key_record_t, ptr %22, i64 %24
  %26 = getelementptr inbounds nuw %struct.uat_key_record_t, ptr %25, i32 0, i32 3
  %27 = getelementptr inbounds [16 x i8], ptr %26, i64 0, i64 0
  %28 = load ptr, ptr @gp_uat_key_records, align 8
  %29 = load i32, ptr %1, align 4
  %30 = zext i32 %29 to i64
  %31 = getelementptr %struct.uat_key_record_t, ptr %28, i64 %30
  %32 = getelementptr inbounds nuw %struct.uat_key_record_t, ptr %31, i32 0, i32 1
  %33 = load i8, ptr %32, align 8
  %34 = icmp ne i8 %33, 0
  %35 = call zeroext i1 @zbee_gp_security_parse_key(ptr noundef %21, ptr noundef %27, i1 noundef zeroext %34)
  br label %36

36:                                               ; preds = %15, %6
  br label %37

37:                                               ; preds = %36
  %38 = load i32, ptr %1, align 4
  %39 = add i32 %38, 1
  store i32 %39, ptr %1, align 4
  br label %2, !llvm.loop !9

40:                                               ; preds = %2
  call void @llvm.lifetime.end.p0(i64 4, ptr %1) #11
  ret void
}