; Function Attrs: nofree nounwind null_pointer_is_valid sspstrong memory(readwrite, inaccessiblemem: none) uwtable
define internal void @uat_key_record_post_update_cb() #3 {
  %1 = load i32, ptr @num_uat_key_records, align 4
  %.not = icmp eq i32 %1, 0
  br i1 %.not, label %._crit_edge, label %.lr.ph.preheader

.lr.ph.preheader:                                 ; preds = %0
  %.pre8 = load ptr, ptr @gp_uat_key_records, align 8
  br label %.lr.ph

.lr.ph:                                           ; preds = %.lr.ph.preheader, %13
  %2 = phi i32 [ %1, %.lr.ph.preheader ], [ %14, %13 ]
  %3 = phi ptr [ %.pre8, %.lr.ph.preheader ], [ %15, %13 ]
  %indvars.iv = phi i64 [ 0, %.lr.ph.preheader ], [ %indvars.iv.next, %13 ]
  %4 = getelementptr %struct.uat_key_record_t, ptr %3, i64 %indvars.iv
  %5 = getelementptr inbounds nuw i8, ptr %4, i64 24
  %bcmp = tail call i32 @bcmp(ptr noundef nonnull dereferenceable(16) %5, ptr noundef nonnull dereferenceable(16) @empty_key, i64 16)
  %6 = icmp eq i32 %bcmp, 0
  br i1 %6, label %7, label %13

7:                                                ; preds = %.lr.ph
  %8 = load ptr, ptr %4, align 8
  %9 = getelementptr inbounds nuw i8, ptr %4, i64 8
  %10 = load i8, ptr %9, align 8
  %11 = icmp ne i8 %10, 0
  %12 = tail call fastcc zeroext i1 @zbee_gp_security_parse_key(ptr noundef %8, ptr noundef nonnull %5, i1 noundef zeroext %11)
  %.pre = load ptr, ptr @gp_uat_key_records, align 8
  %.pre9 = load i32, ptr @num_uat_key_records, align 4
  br label %13

13:                                               ; preds = %.lr.ph, %7
  %14 = phi i32 [ %2, %.lr.ph ], [ %.pre9, %7 ]
  %15 = phi ptr [ %3, %.lr.ph ], [ %.pre, %7 ]
  %indvars.iv.next = add nuw nsw i64 %indvars.iv, 1
  %16 = zext i32 %14 to i64
  %17 = icmp samesign ult i64 %indvars.iv.next, %16
  br i1 %17, label %.lr.ph, label %._crit_edge, !llvm.loop !9

._crit_edge:                                      ; preds = %13, %0
  ret void
}